target datalayout = "e-m:e-p270:32:32-p271:32:32-p272:64:64-i64:64-i128:128-f80:128-n8:16:32:64-S128"
target triple = "x86_64-pc-linux-gnu"

%struct.lv_sdl_window_t = type { ptr, ptr, ptr, ptr, ptr, ptr, ptr, ptr, ptr, i64, float, i8 }

; Function Attrs: nounwind uwtable
define ptr @lv_sdl_get_disp_from_win_id(i32 noundef %0) #0 {
  %2 = alloca ptr, align 8
  %3 = alloca i32, align 4
  %4 = alloca ptr, align 8
  %5 = alloca i32, align 4
  %6 = alloca ptr, align 8
  store i32 %0, ptr %3, align 4, !tbaa !3
  call void @llvm.lifetime.start.p0(i64 8, ptr %4) #8
  %7 = call ptr @lv_display_get_next(ptr noundef null)
  store ptr %7, ptr %4, align 8, !tbaa !11
  %8 = load i32, ptr %3, align 4, !tbaa !3
  %9 = icmp eq i32 %8, -1
  br i1 %9, label %10, label %12

10:                                               ; preds = %1
  %11 = load ptr, ptr %4, align 8, !tbaa !11
  store ptr %11, ptr %2, align 8
  store i32 1, ptr %5, align 4
  br label %37

12:                                               ; preds = %1
  br label %13

13:                                               ; preds = %35, %12
  %14 = load ptr, ptr %4, align 8, !tbaa !11
  %15 = icmp ne ptr %14, null
  br i1 %15, label %16, label %36

16:                                               ; preds = %13
  call void @llvm.lifetime.start.p0(i64 8, ptr %6) #8
  %17 = load ptr, ptr %4, align 8, !tbaa !11
  %18 = call ptr @lv_display_get_driver_data(ptr noundef %17)
  store ptr %18, ptr %6, align 8, !tbaa !11
  %19 = load ptr, ptr %6, align 8, !tbaa !11
  %20 = icmp ne ptr %19, null
  br i1 %20, label %21, label %30

21:                                               ; preds = %16
  %22 = load ptr, ptr %6, align 8, !tbaa !11
  %23 = getelementptr inbounds nuw %struct.lv_sdl_window_t, ptr %22, i32 0, i32 0
  %24 = load ptr, ptr %23, align 8, !tbaa !45
  %25 = call i32 @SDL_GetWindowID(ptr noundef %24)
  %26 = load i32, ptr %3, align 4, !tbaa !3
  %27 = icmp eq i32 %25, %26
  br i1 %27, label %28, label %30

28:                                               ; preds = %21
  %29 = load ptr, ptr %4, align 8, !tbaa !11
  store ptr %29, ptr %2, align 8
  store i32 1, ptr %5, align 4
  br label %33

30:                                               ; preds = %21, %16
  %31 = load ptr, ptr %4, align 8, !tbaa !11
  %32 = call ptr @lv_display_get_next(ptr noundef %31)
  store ptr %32, ptr %4, align 8, !tbaa !11
  store i32 0, ptr %5, align 4
  br label %33

33:                                               ; preds = %30, %28
  call void @llvm.lifetime.end.p0(i64 8, ptr %6) #8
  %34 = load i32, ptr %5, align 4
  switch i32 %34, label %37 [
    i32 0, label %35
  ]

35:                                               ; preds = %33
  br label %13, !llvm.loop !54

36:                                               ; preds = %13
  store ptr null, ptr %2, align 8
  store i32 1, ptr %5, align 4
  br label %37

37:                                               ; preds = %36, %33, %10
  call void @llvm.lifetime.end.p0(i64 8, ptr %4) #8
  %38 = load ptr, ptr %2, align 8
  ret ptr %38
}