; Function Attrs: nounwind uwtable
define ptr @lv_sdl_get_disp_from_win_id(i32 noundef %0) local_unnamed_addr #0 {
  %2 = tail call ptr @lv_display_get_next(ptr noundef null) #6
  %3 = icmp eq i32 %0, -1
  br i1 %3, label %.thread, label %.preheader

.preheader:                                       ; preds = %1
  %.not18 = icmp eq ptr %2, null
  br i1 %.not18, label %.thread, label %.lr.ph

.lr.ph:                                           ; preds = %.preheader, %9
  %.01119 = phi ptr [ %10, %9 ], [ %2, %.preheader ]
  %4 = tail call ptr @lv_display_get_driver_data(ptr noundef nonnull %.01119) #6
  %.not14 = icmp eq ptr %4, null
  br i1 %.not14, label %9, label %5

5:                                                ; preds = %.lr.ph
  %6 = load ptr, ptr %4, align 8, !tbaa !22
  %7 = tail call i32 @SDL_GetWindowID(ptr noundef %6) #6
  %8 = icmp eq i32 %7, %0
  br i1 %8, label %.thread, label %9

9:                                                ; preds = %.lr.ph, %5
  %10 = tail call ptr @lv_display_get_next(ptr noundef nonnull %.01119) #6
  %.not = icmp eq ptr %10, null
  br i1 %.not, label %.thread, label %.lr.ph, !llvm.loop !27

.thread:                                          ; preds = %9, %5, %.preheader, %1
  %.0 = phi ptr [ %2, %1 ], [ null, %.preheader ], [ null, %9 ], [ %.01119, %5 ]
  ret ptr %.0
}